target datalayout = "e-m:e-p270:32:32-p271:32:32-p272:64:64-i64:64-i128:128-f80:128-n8:16:32:64-S128"
target triple = "x86_64-unknown-linux-gnu"

%"class.QuantLib::Date" = type { i64 }

@_ZZNK8QuantLib14Actual365Fixed7NL_Impl8dayCountERKNS_4DateES4_E11MonthOffset = internal constant [12 x i32] [i32 0, i32 31, i32 59, i32 90, i32 120, i32 151, i32 181, i32 212, i32 243, i32 273, i32 304, i32 334], align 16

; Function Attrs: inlinehint mustprogress uwtable
define linkonce_odr noundef i32 @_ZNK8QuantLib4Date9dayOfYearEv(ptr noundef nonnull align 8 dereferenceable(8) %this) #4 comdat align 2 {
entry:
  %this.addr = alloca ptr, align 8
  store ptr %this, ptr %this.addr, align 8, !tbaa !7
  %this1 = load ptr, ptr %this.addr, align 8
  %serialNumber_ = getelementptr inbounds nuw %"class.QuantLib::Date", ptr %this1, i32 0, i32 0
  %0 = load i64, ptr %serialNumber_, align 8, !tbaa !21
  %call = call noundef i32 @_ZNK8QuantLib4Date4yearEv(ptr noundef nonnull align 8 dereferenceable(8) %this1)
  %call2 = call noundef i64 @_ZN8QuantLib4Date10yearOffsetEi(i32 noundef %call)
  %sub = sub nsw i64 %0, %call2
  %conv = trunc i64 %sub to i32
  ret i32 %conv
}

; Function Attrs: inlinehint mustprogress uwtable
define linkonce_odr noundef i32 @_ZNK8QuantLib4Date10dayOfMonthEv(ptr noundef nonnull align 8 dereferenceable(8) %this) #4 comdat align 2 {
entry:
  %this.addr = alloca ptr, align 8
  store ptr %this, ptr %this.addr, align 8, !tbaa !7
  %this1 = load ptr, ptr %this.addr, align 8
  %call = call noundef i32 @_ZNK8QuantLib4Date9dayOfYearEv(ptr noundef nonnull align 8 dereferenceable(8) %this1)
  %call2 = call noundef i32 @_ZNK8QuantLib4Date5monthEv(ptr noundef nonnull align 8 dereferenceable(8) %this1)
  %call3 = call noundef i32 @_ZNK8QuantLib4Date4yearEv(ptr noundef nonnull align 8 dereferenceable(8) %this1)
  %call4 = call noundef zeroext i1 @_ZN8QuantLib4Date6isLeapEi(i32 noundef %call3)
  %call5 = call noundef i32 @_ZN8QuantLib4Date11monthOffsetENS_5MonthEb(i32 noundef %call2, i1 noundef zeroext %call4)
  %sub = sub nsw i32 %call, %call5
  ret i32 %sub
}

; Function Attrs: mustprogress uwtable
define noundef i64 @_ZNK8QuantLib14Actual365Fixed7NL_Impl8dayCountERKNS_4DateES4_(ptr noundef nonnull align 8 dereferenceable(8) %this, ptr noundef nonnull align 8 dereferenceable(8) %d1, ptr noundef nonnull align 8 dereferenceable(8) %d2) unnamed_addr #0 align 2 {
entry:
  %this.addr = alloca ptr, align 8
  %d1.addr = alloca ptr, align 8
  %d2.addr = alloca ptr, align 8
  %s1 = alloca i64, align 8
  %s2 = alloca i64, align 8
  store ptr %this, ptr %this.addr, align 8, !tbaa !7
  store ptr %d1, ptr %d1.addr, align 8, !tbaa !7
  store ptr %d2, ptr %d2.addr, align 8, !tbaa !7
  call void @llvm.lifetime.start.p0(i64 8, ptr %s1) #15
  %0 = load ptr, ptr %d1.addr, align 8, !tbaa !7
  %call = call noundef i32 @_ZNK8QuantLib4Date10dayOfMonthEv(ptr noundef nonnull align 8 dereferenceable(8) %0)
  %1 = load ptr, ptr %d1.addr, align 8, !tbaa !7
  %call2 = call noundef i32 @_ZNK8QuantLib4Date5monthEv(ptr noundef nonnull align 8 dereferenceable(8) %1)
  %sub = sub nsw i32 %call2, 1
  %idxprom = sext i32 %sub to i64
  %arrayidx = getelementptr inbounds [12 x i32], ptr @_ZZNK8QuantLib14Actual365Fixed7NL_Impl8dayCountERKNS_4DateES4_E11MonthOffset, i64 0, i64 %idxprom
  %2 = load i32, ptr %arrayidx, align 4, !tbaa !16
  %add = add nsw i32 %call, %2
  %3 = load ptr, ptr %d1.addr, align 8, !tbaa !7
  %call3 = call noundef i32 @_ZNK8QuantLib4Date4yearEv(ptr noundef nonnull align 8 dereferenceable(8) %3)
  %mul = mul nsw i32 %call3, 365
  %add4 = add nsw i32 %add, %mul
  %conv = sext i32 %add4 to i64
  store i64 %conv, ptr %s1, align 8, !tbaa !18
  call void @llvm.lifetime.start.p0(i64 8, ptr %s2) #15
  %4 = load ptr, ptr %d2.addr, align 8, !tbaa !7
  %call5 = call noundef i32 @_ZNK8QuantLib4Date10dayOfMonthEv(ptr noundef nonnull align 8 dereferenceable(8) %4)
  %5 = load ptr, ptr %d2.addr, align 8, !tbaa !7
  %call6 = call noundef i32 @_ZNK8QuantLib4Date5monthEv(ptr noundef nonnull align 8 dereferenceable(8) %5)
  %sub7 = sub nsw i32 %call6, 1
  %idxprom8 = sext i32 %sub7 to i64
  %arrayidx9 = getelementptr inbounds [12 x i32], ptr @_ZZNK8QuantLib14Actual365Fixed7NL_Impl8dayCountERKNS_4DateES4_E11MonthOffset, i64 0, i64 %idxprom8
  %6 = load i32, ptr %arrayidx9, align 4, !tbaa !16
  %add10 = add nsw i32 %call5, %6
  %7 = load ptr, ptr %d2.addr, align 8, !tbaa !7
  %call11 = call noundef i32 @_ZNK8QuantLib4Date4yearEv(ptr noundef nonnull align 8 dereferenceable(8) %7)
  %mul12 = mul nsw i32 %call11, 365
  %add13 = add nsw i32 %add10, %mul12
  %conv14 = sext i32 %add13 to i64
  store i64 %conv14, ptr %s2, align 8, !tbaa !18
  %8 = load ptr, ptr %d1.addr, align 8, !tbaa !7
  %call15 = call noundef i32 @_ZNK8QuantLib4Date5monthEv(ptr noundef nonnull align 8 dereferenceable(8) %8)
  %cmp = icmp eq i32 %call15, 2
  br i1 %cmp, label %land.lhs.true, label %if.end

land.lhs.true:                                    ; preds = %entry
  %9 = load ptr, ptr %d1.addr, align 8, !tbaa !7
  %call16 = call noundef i32 @_ZNK8QuantLib4Date10dayOfMonthEv(ptr noundef nonnull align 8 dereferenceable(8) %9)
  %cmp17 = icmp eq i32 %call16, 29
  br i1 %cmp17, label %if.then, label %if.end

if.then:                                          ; preds = %land.lhs.true
  %10 = load i64, ptr %s1, align 8, !tbaa !18
  %dec = add nsw i64 %10, -1
  store i64 %dec, ptr %s1, align 8, !tbaa !18
  br label %if.end

if.end:                                           ; preds = %if.then, %land.lhs.true, %entry
  %11 = load ptr, ptr %d2.addr, align 8, !tbaa !7
  %call18 = call noundef i32 @_ZNK8QuantLib4Date5monthEv(ptr noundef nonnull align 8 dereferenceable(8) %11)
  %cmp19 = icmp eq i32 %call18, 2
  br i1 %cmp19, label %land.lhs.true20, label %if.end25

land.lhs.true20:                                  ; preds = %if.end
  %12 = load ptr, ptr %d2.addr, align 8, !tbaa !7
  %call21 = call noundef i32 @_ZNK8QuantLib4Date10dayOfMonthEv(ptr noundef nonnull align 8 dereferenceable(8) %12)
  %cmp22 = icmp eq i32 %call21, 29
  br i1 %cmp22, label %if.then23, label %if.end25

if.then23:                                        ; preds = %land.lhs.true20
  %13 = load i64, ptr %s2, align 8, !tbaa !18
  %dec24 = add nsw i64 %13, -1
  store i64 %dec24, ptr %s2, align 8, !tbaa !18
  br label %if.end25

if.end25:                                         ; preds = %if.then23, %land.lhs.true20, %if.end
  %14 = load i64, ptr %s2, align 8, !tbaa !18
  %15 = load i64, ptr %s1, align 8, !tbaa !18
  %sub26 = sub nsw i64 %14, %15
  call void @llvm.lifetime.end.p0(i64 8, ptr %s2) #15
  call void @llvm.lifetime.end.p0(i64 8, ptr %s1) #15
  ret i64 %sub26
}