; Function Attrs: mustprogress uwtable
define noundef range(i64 -4294967296, 4294967297) i64 @_ZNK8QuantLib14Actual365Fixed7NL_Impl8dayCountERKNS_4DateES4_(ptr nocapture nonnull readnone align 8 %this, ptr noundef nonnull align 8 dereferenceable(8) %d1, ptr noundef nonnull align 8 dereferenceable(8) %d2) unnamed_addr #0 align 2 {
entry:
  %0 = load i64, ptr %d1, align 8, !tbaa !20
  %call.i.i = tail call noundef i32 @_ZNK8QuantLib4Date4yearEv(ptr noundef nonnull align 8 dereferenceable(8) %d1)
  %call2.i.i = tail call noundef i64 @_ZN8QuantLib4Date10yearOffsetEi(i32 noundef %call.i.i)
  %sub.i.i = sub nsw i64 %0, %call2.i.i
  %conv.i.i = trunc i64 %sub.i.i to i32
  %call2.i = tail call noundef i32 @_ZNK8QuantLib4Date5monthEv(ptr noundef nonnull align 8 dereferenceable(8) %d1)
  %call3.i = tail call noundef i32 @_ZNK8QuantLib4Date4yearEv(ptr noundef nonnull align 8 dereferenceable(8) %d1)
  %call4.i = tail call noundef zeroext i1 @_ZN8QuantLib4Date6isLeapEi(i32 noundef %call3.i)
  %call5.i = tail call noundef i32 @_ZN8QuantLib4Date11monthOffsetENS_5MonthEb(i32 noundef %call2.i, i1 noundef zeroext %call4.i)
  %sub.i = sub i32 %conv.i.i, %call5.i
  %call2 = tail call noundef i32 @_ZNK8QuantLib4Date5monthEv(ptr noundef nonnull align 8 dereferenceable(8) %d1)
  %sub = add nsw i32 %call2, -1
  %idxprom = sext i32 %sub to i64
  %arrayidx = getelementptr inbounds [12 x i32], ptr @_ZZNK8QuantLib14Actual365Fixed7NL_Impl8dayCountERKNS_4DateES4_E11MonthOffset, i64 0, i64 %idxprom
  %1 = load i32, ptr %arrayidx, align 4, !tbaa !22
  %add = add nsw i32 %sub.i, %1
  %call3 = tail call noundef i32 @_ZNK8QuantLib4Date4yearEv(ptr noundef nonnull align 8 dereferenceable(8) %d1)
  %mul = mul nsw i32 %call3, 365
  %add4 = add nsw i32 %add, %mul
  %conv = sext i32 %add4 to i64
  %2 = load i64, ptr %d2, align 8, !tbaa !20
  %call.i.i12 = tail call noundef i32 @_ZNK8QuantLib4Date4yearEv(ptr noundef nonnull align 8 dereferenceable(8) %d2)
  %call2.i.i13 = tail call noundef i64 @_ZN8QuantLib4Date10yearOffsetEi(i32 noundef %call.i.i12)
  %sub.i.i14 = sub nsw i64 %2, %call2.i.i13
  %conv.i.i15 = trunc i64 %sub.i.i14 to i32
  %call2.i16 = tail call noundef i32 @_ZNK8QuantLib4Date5monthEv(ptr noundef nonnull align 8 dereferenceable(8) %d2)
  %call3.i17 = tail call noundef i32 @_ZNK8QuantLib4Date4yearEv(ptr noundef nonnull align 8 dereferenceable(8) %d2)
  %call4.i18 = tail call noundef zeroext i1 @_ZN8QuantLib4Date6isLeapEi(i32 noundef %call3.i17)
  %call5.i19 = tail call noundef i32 @_ZN8QuantLib4Date11monthOffsetENS_5MonthEb(i32 noundef %call2.i16, i1 noundef zeroext %call4.i18)
  %sub.i20 = sub i32 %conv.i.i15, %call5.i19
  %call6 = tail call noundef i32 @_ZNK8QuantLib4Date5monthEv(ptr noundef nonnull align 8 dereferenceable(8) %d2)
  %sub7 = add nsw i32 %call6, -1
  %idxprom8 = sext i32 %sub7 to i64
  %arrayidx9 = getelementptr inbounds [12 x i32], ptr @_ZZNK8QuantLib14Actual365Fixed7NL_Impl8dayCountERKNS_4DateES4_E11MonthOffset, i64 0, i64 %idxprom8
  %3 = load i32, ptr %arrayidx9, align 4, !tbaa !22
  %add10 = add nsw i32 %sub.i20, %3
  %call11 = tail call noundef i32 @_ZNK8QuantLib4Date4yearEv(ptr noundef nonnull align 8 dereferenceable(8) %d2)
  %mul12 = mul nsw i32 %call11, 365
  %add13 = add nsw i32 %add10, %mul12
  %conv14 = sext i32 %add13 to i64
  %call15 = tail call noundef i32 @_ZNK8QuantLib4Date5monthEv(ptr noundef nonnull align 8 dereferenceable(8) %d1)
  %cmp = icmp eq i32 %call15, 2
  br i1 %cmp, label %land.lhs.true, label %if.end

land.lhs.true:                                    ; preds = %entry
  %4 = load i64, ptr %d1, align 8, !tbaa !20
  %call.i.i21 = tail call noundef i32 @_ZNK8QuantLib4Date4yearEv(ptr noundef nonnull align 8 dereferenceable(8) %d1)
  %call2.i.i22 = tail call noundef i64 @_ZN8QuantLib4Date10yearOffsetEi(i32 noundef %call.i.i21)
  %sub.i.i23 = sub nsw i64 %4, %call2.i.i22
  %conv.i.i24 = trunc i64 %sub.i.i23 to i32
  %call2.i25 = tail call noundef i32 @_ZNK8QuantLib4Date5monthEv(ptr noundef nonnull align 8 dereferenceable(8) %d1)
  %call3.i26 = tail call noundef i32 @_ZNK8QuantLib4Date4yearEv(ptr noundef nonnull align 8 dereferenceable(8) %d1)
  %call4.i27 = tail call noundef zeroext i1 @_ZN8QuantLib4Date6isLeapEi(i32 noundef %call3.i26)
  %call5.i28 = tail call noundef i32 @_ZN8QuantLib4Date11monthOffsetENS_5MonthEb(i32 noundef %call2.i25, i1 noundef zeroext %call4.i27)
  %sub.i29 = sub nsw i32 %conv.i.i24, %call5.i28
  %cmp17 = icmp eq i32 %sub.i29, 29
  %dec = sext i1 %cmp17 to i64
  %spec.select = add nsw i64 %dec, %conv
  br label %if.end

if.end:                                           ; preds = %land.lhs.true, %entry
  %s1.0 = phi i64 [ %conv, %entry ], [ %spec.select, %land.lhs.true ]
  %call18 = tail call noundef i32 @_ZNK8QuantLib4Date5monthEv(ptr noundef nonnull align 8 dereferenceable(8) %d2)
  %cmp19 = icmp eq i32 %call18, 2
  br i1 %cmp19, label %land.lhs.true20, label %if.end25

land.lhs.true20:                                  ; preds = %if.end
  %5 = load i64, ptr %d2, align 8, !tbaa !20
  %call.i.i30 = tail call noundef i32 @_ZNK8QuantLib4Date4yearEv(ptr noundef nonnull align 8 dereferenceable(8) %d2)
  %call2.i.i31 = tail call noundef i64 @_ZN8QuantLib4Date10yearOffsetEi(i32 noundef %call.i.i30)
  %sub.i.i32 = sub nsw i64 %5, %call2.i.i31
  %conv.i.i33 = trunc i64 %sub.i.i32 to i32
  %call2.i34 = tail call noundef i32 @_ZNK8QuantLib4Date5monthEv(ptr noundef nonnull align 8 dereferenceable(8) %d2)
  %call3.i35 = tail call noundef i32 @_ZNK8QuantLib4Date4yearEv(ptr noundef nonnull align 8 dereferenceable(8) %d2)
  %call4.i36 = tail call noundef zeroext i1 @_ZN8QuantLib4Date6isLeapEi(i32 noundef %call3.i35)
  %call5.i37 = tail call noundef i32 @_ZN8QuantLib4Date11monthOffsetENS_5MonthEb(i32 noundef %call2.i34, i1 noundef zeroext %call4.i36)
  %sub.i38 = sub nsw i32 %conv.i.i33, %call5.i37
  %cmp22 = icmp eq i32 %sub.i38, 29
  %dec24 = sext i1 %cmp22 to i64
  %spec.select11 = add nsw i64 %dec24, %conv14
  br label %if.end25

if.end25:                                         ; preds = %land.lhs.true20, %if.end
  %s2.0 = phi i64 [ %conv14, %if.end ], [ %spec.select11, %land.lhs.true20 ]
  %sub26 = sub nsw i64 %s2.0, %s1.0
  ret i64 %sub26
}